; ModuleID = '24/486.c'
source_filename = "24/486.c"
target datalayout = "e-m:e-p270:32:32-p271:32:32-p272:64:64-i64:64-f80:128-n8:16:32:64-S128"
target triple = "x86_64-pc-linux-gnu"

; Function Attrs: noinline nounwind uwtable
define dso_local void @main() #0 {
  %1 = alloca i32, align 4
  %2 = alloca i32, align 4
  %3 = alloca i32, align 4
  %4 = alloca i32, align 4
  %5 = alloca [100 x i32], align 16
  %6 = alloca i32, align 4
  %7 = alloca [1000 x i8], align 16
  %8 = alloca [1000 x [51 x i8]], align 16
  %9 = alloca [51 x i8], align 16
  store i32 0, i32* %2, align 4
  %10 = getelementptr inbounds [1000 x i8], [1000 x i8]* %7, i64 0, i64 0
  %11 = call i32 (i8*, ...) bitcast (i32 (...)* @gets to i32 (i8*, ...)*)(i8* %10)
  %12 = getelementptr inbounds [1000 x i8], [1000 x i8]* %7, i64 0, i64 0
  %13 = call i64 @strlen(i8* %12) #4
  %14 = trunc i64 %13 to i32
  store i32 %14, i32* %1, align 4
  %15 = getelementptr inbounds [100 x i32], [100 x i32]* %5, i64 0, i64 0
  store i32 0, i32* %15, align 16
  store i32 0, i32* %3, align 4
  br label %16

16:                                               ; preds = %69, %0
  %17 = load i32, i32* %3, align 4
  %18 = load i32, i32* %1, align 4
  %19 = icmp slt i32 %17, %18
  br i1 %19, label %20, label %72

20:                                               ; preds = %16
  %21 = load i32, i32* %3, align 4
  %22 = sext i32 %21 to i64
  %23 = getelementptr inbounds [1000 x i8], [1000 x i8]* %7, i64 0, i64 %22
  %24 = load i8, i8* %23, align 1
  %25 = sext i8 %24 to i32
  %26 = icmp ne i32 %25, 32
  br i1 %26, label %27, label %55

27:                                               ; preds = %20
  %28 = load i32, i32* %3, align 4
  %29 = sext i32 %28 to i64
  %30 = getelementptr inbounds [1000 x i8], [1000 x i8]* %7, i64 0, i64 %29
  %31 = load i8, i8* %30, align 1
  %32 = load i32, i32* %2, align 4
  %33 = sext i32 %32 to i64
  %34 = getelementptr inbounds [1000 x [51 x i8]], [1000 x [51 x i8]]* %8, i64 0, i64 %33
  %35 = load i32, i32* %2, align 4
  %36 = sext i32 %35 to i64
  %37 = getelementptr inbounds [100 x i32], [100 x i32]* %5, i64 0, i64 %36
  %38 = load i32, i32* %37, align 4
  %39 = sext i32 %38 to i64
  %40 = getelementptr inbounds [51 x i8], [51 x i8]* %34, i64 0, i64 %39
  store i8 %31, i8* %40, align 1
  %41 = load i32, i32* %2, align 4
  %42 = sext i32 %41 to i64
  %43 = getelementptr inbounds [100 x i32], [100 x i32]* %5, i64 0, i64 %42
  %44 = load i32, i32* %43, align 4
  %45 = add nsw i32 %44, 1
  store i32 %45, i32* %43, align 4
  %46 = load i32, i32* %2, align 4
  %47 = sext i32 %46 to i64
  %48 = getelementptr inbounds [1000 x [51 x i8]], [1000 x [51 x i8]]* %8, i64 0, i64 %47
  %49 = load i32, i32* %2, align 4
  %50 = sext i32 %49 to i64
  %51 = getelementptr inbounds [100 x i32], [100 x i32]* %5, i64 0, i64 %50
  %52 = load i32, i32* %51, align 4
  %53 = sext i32 %52 to i64
  %54 = getelementptr inbounds [51 x i8], [51 x i8]* %48, i64 0, i64 %53
  store i8 0, i8* %54, align 1
  br label %55

55:                                               ; preds = %27, %20
  %56 = load i32, i32* %3, align 4
  %57 = sext i32 %56 to i64
  %58 = getelementptr inbounds [1000 x i8], [1000 x i8]* %7, i64 0, i64 %57
  %59 = load i8, i8* %58, align 1
  %60 = sext i8 %59 to i32
  %61 = icmp eq i32 %60, 32
  br i1 %61, label %62, label %68

62:                                               ; preds = %55
  %63 = load i32, i32* %2, align 4
  %64 = add nsw i32 %63, 1
  store i32 %64, i32* %2, align 4
  %65 = load i32, i32* %2, align 4
  %66 = sext i32 %65 to i64
  %67 = getelementptr inbounds [100 x i32], [100 x i32]* %5, i64 0, i64 %66
  store i32 0, i32* %67, align 4
  br label %68

68:                                               ; preds = %62, %55
  br label %69

69:                                               ; preds = %68
  %70 = load i32, i32* %3, align 4
  %71 = add nsw i32 %70, 1
  store i32 %71, i32* %3, align 4
  br label %16

72:                                               ; preds = %16
  store i32 1, i32* %3, align 4
  br label %73

73:                                               ; preds = %141, %72
  %74 = load i32, i32* %3, align 4
  %75 = load i32, i32* %2, align 4
  %76 = icmp sle i32 %74, %75
  br i1 %76, label %77, label %144

77:                                               ; preds = %73
  store i32 0, i32* %4, align 4
  br label %78

78:                                               ; preds = %137, %77
  %79 = load i32, i32* %4, align 4
  %80 = load i32, i32* %2, align 4
  %81 = load i32, i32* %3, align 4
  %82 = sub nsw i32 %80, %81
  %83 = icmp sle i32 %79, %82
  br i1 %83, label %84, label %140

84:                                               ; preds = %78
  %85 = load i32, i32* %4, align 4
  %86 = sext i32 %85 to i64
  %87 = getelementptr inbounds [100 x i32], [100 x i32]* %5, i64 0, i64 %86
  %88 = load i32, i32* %87, align 4
  %89 = load i32, i32* %4, align 4
  %90 = add nsw i32 %89, 1
  %91 = sext i32 %90 to i64
  %92 = getelementptr inbounds [100 x i32], [100 x i32]* %5, i64 0, i64 %91
  %93 = load i32, i32* %92, align 4
  %94 = icmp slt i32 %88, %93
  br i1 %94, label %95, label %136

95:                                               ; preds = %84
  %96 = load i32, i32* %4, align 4
  %97 = add nsw i32 %96, 1
  %98 = sext i32 %97 to i64
  %99 = getelementptr inbounds [100 x i32], [100 x i32]* %5, i64 0, i64 %98
  %100 = load i32, i32* %99, align 4
  store i32 %100, i32* %6, align 4
  %101 = load i32, i32* %4, align 4
  %102 = sext i32 %101 to i64
  %103 = getelementptr inbounds [100 x i32], [100 x i32]* %5, i64 0, i64 %102
  %104 = load i32, i32* %103, align 4
  %105 = load i32, i32* %4, align 4
  %106 = add nsw i32 %105, 1
  %107 = sext i32 %106 to i64
  %108 = getelementptr inbounds [100 x i32], [100 x i32]* %5, i64 0, i64 %107
  store i32 %104, i32* %108, align 4
  %109 = load i32, i32* %6, align 4
  %110 = load i32, i32* %4, align 4
  %111 = sext i32 %110 to i64
  %112 = getelementptr inbounds [100 x i32], [100 x i32]* %5, i64 0, i64 %111
  store i32 %109, i32* %112, align 4
  %113 = getelementptr inbounds [51 x i8], [51 x i8]* %9, i64 0, i64 0
  %114 = load i32, i32* %4, align 4
  %115 = sext i32 %114 to i64
  %116 = getelementptr inbounds [1000 x [51 x i8]], [1000 x [51 x i8]]* %8, i64 0, i64 %115
  %117 = getelementptr inbounds [51 x i8], [51 x i8]* %116, i64 0, i64 0
  %118 = call i8* @strcpy(i8* %113, i8* %117) #5
  %119 = load i32, i32* %4, align 4
  %120 = sext i32 %119 to i64
  %121 = getelementptr inbounds [1000 x [51 x i8]], [1000 x [51 x i8]]* %8, i64 0, i64 %120
  %122 = getelementptr inbounds [51 x i8], [51 x i8]* %121, i64 0, i64 0
  %123 = load i32, i32* %4, align 4
  %124 = add nsw i32 %123, 1
  %125 = sext i32 %124 to i64
  %126 = getelementptr inbounds [1000 x [51 x i8]], [1000 x [51 x i8]]* %8, i64 0, i64 %125
  %127 = getelementptr inbounds [51 x i8], [51 x i8]* %126, i64 0, i64 0
  %128 = call i8* @strcpy(i8* %122, i8* %127) #5
  %129 = load i32, i32* %4, align 4
  %130 = add nsw i32 %129, 1
  %131 = sext i32 %130 to i64
  %132 = getelementptr inbounds [1000 x [51 x i8]], [1000 x [51 x i8]]* %8, i64 0, i64 %131
  %133 = getelementptr inbounds [51 x i8], [51 x i8]* %132, i64 0, i64 0
  %134 = getelementptr inbounds [51 x i8], [51 x i8]* %9, i64 0, i64 0
  %135 = call i8* @strcpy(i8* %133, i8* %134) #5
  br label %136

136:                                              ; preds = %95, %84
  br label %137

137:                                              ; preds = %136
  %138 = load i32, i32* %4, align 4
  %139 = add nsw i32 %138, 1
  store i32 %139, i32* %4, align 4
  br label %78

140:                                              ; preds = %78
  br label %141

141:                                              ; preds = %140
  %142 = load i32, i32* %3, align 4
  %143 = add nsw i32 %142, 1
  store i32 %143, i32* %3, align 4
  br label %73

144:                                              ; preds = %73
  %145 = getelementptr inbounds [1000 x [51 x i8]], [1000 x [51 x i8]]* %8, i64 0, i64 0
  %146 = getelementptr inbounds [51 x i8], [51 x i8]* %145, i64 0, i64 0
  %147 = call i32 @puts(i8* %146)
  store i32 1, i32* %3, align 4
  br label %148

148:                                              ; preds = %216, %144
  %149 = load i32, i32* %3, align 4
  %150 = load i32, i32* %2, align 4
  %151 = icmp sle i32 %149, %150
  br i1 %151, label %152, label %219

152:                                              ; preds = %148
  store i32 0, i32* %4, align 4
  br label %153

153:                                              ; preds = %212, %152
  %154 = load i32, i32* %4, align 4
  %155 = load i32, i32* %2, align 4
  %156 = load i32, i32* %3, align 4
  %157 = sub nsw i32 %155, %156
  %158 = icmp sle i32 %154, %157
  br i1 %158, label %159, label %215

159:                                              ; preds = %153
  %160 = load i32, i32* %4, align 4
  %161 = sext i32 %160 to i64
  %162 = getelementptr inbounds [100 x i32], [100 x i32]* %5, i64 0, i64 %161
  %163 = load i32, i32* %162, align 4
  %164 = load i32, i32* %4, align 4
  %165 = add nsw i32 %164, 1
  %166 = sext i32 %165 to i64
  %167 = getelementptr inbounds [100 x i32], [100 x i32]* %5, i64 0, i64 %166
  %168 = load i32, i32* %167, align 4
  %169 = icmp sgt i32 %163, %168
  br i1 %169, label %170, label %211

170:                                              ; preds = %159
  %171 = load i32, i32* %4, align 4
  %172 = add nsw i32 %171, 1
  %173 = sext i32 %172 to i64
  %174 = getelementptr inbounds [100 x i32], [100 x i32]* %5, i64 0, i64 %173
  %175 = load i32, i32* %174, align 4
  store i32 %175, i32* %6, align 4
  %176 = load i32, i32* %4, align 4
  %177 = sext i32 %176 to i64
  %178 = getelementptr inbounds [100 x i32], [100 x i32]* %5, i64 0, i64 %177
  %179 = load i32, i32* %178, align 4
  %180 = load i32, i32* %4, align 4
  %181 = add nsw i32 %180, 1
  %182 = sext i32 %181 to i64
  %183 = getelementptr inbounds [100 x i32], [100 x i32]* %5, i64 0, i64 %182
  store i32 %179, i32* %183, align 4
  %184 = load i32, i32* %6, align 4
  %185 = load i32, i32* %4, align 4
  %186 = sext i32 %185 to i64
  %187 = getelementptr inbounds [100 x i32], [100 x i32]* %5, i64 0, i64 %186
  store i32 %184, i32* %187, align 4
  %188 = getelementptr inbounds [51 x i8], [51 x i8]* %9, i64 0, i64 0
  %189 = load i32, i32* %4, align 4
  %190 = sext i32 %189 to i64
  %191 = getelementptr inbounds [1000 x [51 x i8]], [1000 x [51 x i8]]* %8, i64 0, i64 %190
  %192 = getelementptr inbounds [51 x i8], [51 x i8]* %191, i64 0, i64 0
  %193 = call i8* @strcpy(i8* %188, i8* %192) #5
  %194 = load i32, i32* %4, align 4
  %195 = sext i32 %194 to i64
  %196 = getelementptr inbounds [1000 x [51 x i8]], [1000 x [51 x i8]]* %8, i64 0, i64 %195
  %197 = getelementptr inbounds [51 x i8], [51 x i8]* %196, i64 0, i64 0
  %198 = load i32, i32* %4, align 4
  %199 = add nsw i32 %198, 1
  %200 = sext i32 %199 to i64
  %201 = getelementptr inbounds [1000 x [51 x i8]], [1000 x [51 x i8]]* %8, i64 0, i64 %200
  %202 = getelementptr inbounds [51 x i8], [51 x i8]* %201, i64 0, i64 0
  %203 = call i8* @strcpy(i8* %197, i8* %202) #5
  %204 = load i32, i32* %4, align 4
  %205 = add nsw i32 %204, 1
  %206 = sext i32 %205 to i64
  %207 = getelementptr inbounds [1000 x [51 x i8]], [1000 x [51 x i8]]* %8, i64 0, i64 %206
  %208 = getelementptr inbounds [51 x i8], [51 x i8]* %207, i64 0, i64 0
  %209 = getelementptr inbounds [51 x i8], [51 x i8]* %9, i64 0, i64 0
  %210 = call i8* @strcpy(i8* %208, i8* %209) #5
  br label %211

211:                                              ; preds = %170, %159
  br label %212

212:                                              ; preds = %211
  %213 = load i32, i32* %4, align 4
  %214 = add nsw i32 %213, 1
  store i32 %214, i32* %4, align 4
  br label %153

215:                                              ; preds = %153
  br label %216

216:                                              ; preds = %215
  %217 = load i32, i32* %3, align 4
  %218 = add nsw i32 %217, 1
  store i32 %218, i32* %3, align 4
  br label %148

219:                                              ; preds = %148
  %220 = getelementptr inbounds [1000 x [51 x i8]], [1000 x [51 x i8]]* %8, i64 0, i64 0
  %221 = getelementptr inbounds [51 x i8], [51 x i8]* %220, i64 0, i64 0
  %222 = call i32 @puts(i8* %221)
  ret void
}

declare dso_local i32 @gets(...) #1

; Function Attrs: nounwind readonly
declare dso_local i64 @strlen(i8*) #2

; Function Attrs: nounwind
declare dso_local i8* @strcpy(i8*, i8*) #3

declare dso_local i32 @puts(i8*) #1


!llvm.module.flags = !{!0}
!llvm.ident = !{!1}

!0 = !{i32 1, !"wchar_size", i32 4}
!1 = !{!"clang version 10.0.0-4ubuntu1 "}
